
build/output.elf:     file format elf32-littlearm


Disassembly of section .text:

00008000 <_start>:
    8000:	e3a0d902 	mov	sp, #32768	; 0x8000
    8004:	eb000048 	bl	812c <main>

00008008 <hang>:
    8008:	eafffffe 	b	8008 <hang>

0000800c <convert_pin_to_gpio>:
    800c:	e52db004 	push	{fp}		; (str fp, [sp, #-4]!)
    8010:	e28db000 	add	fp, sp, #0
    8014:	e24dd00c 	sub	sp, sp, #12
    8018:	e1a03000 	mov	r3, r0
    801c:	e54b3005 	strb	r3, [fp, #-5]
    8020:	e15b30d5 	ldrsb	r3, [fp, #-5]
    8024:	e3530000 	cmp	r3, #0
    8028:	ba000002 	blt	8038 <convert_pin_to_gpio+0x2c>
    802c:	e15b30d5 	ldrsb	r3, [fp, #-5]
    8030:	e3530028 	cmp	r3, #40	; 0x28
    8034:	da000001 	ble	8040 <convert_pin_to_gpio+0x34>
    8038:	e3a030ff 	mov	r3, #255	; 0xff
    803c:	ea000003 	b	8050 <convert_pin_to_gpio+0x44>
    8040:	e15b20d5 	ldrsb	r2, [fp, #-5]
    8044:	e308319c 	movw	r3, #33180	; 0x819c
    8048:	e3403000 	movt	r3, #0
    804c:	e7d33002 	ldrb	r3, [r3, r2]
    8050:	e6af3073 	sxtb	r3, r3
    8054:	e1a00003 	mov	r0, r3
    8058:	e28bd000 	add	sp, fp, #0
    805c:	e8bd0800 	ldmfd	sp!, {fp}
    8060:	e12fff1e 	bx	lr

00008064 <convert_gpio_to_pin>:
    8064:	e52db004 	push	{fp}		; (str fp, [sp, #-4]!)
    8068:	e28db000 	add	fp, sp, #0
    806c:	e24dd00c 	sub	sp, sp, #12
    8070:	e1a03000 	mov	r3, r0
    8074:	e54b3005 	strb	r3, [fp, #-5]
    8078:	e15b30d5 	ldrsb	r3, [fp, #-5]
    807c:	e3530000 	cmp	r3, #0
    8080:	ba000002 	blt	8090 <convert_gpio_to_pin+0x2c>
    8084:	e15b30d5 	ldrsb	r3, [fp, #-5]
    8088:	e353001c 	cmp	r3, #28
    808c:	da000001 	ble	8098 <convert_gpio_to_pin+0x34>
    8090:	e3a030ff 	mov	r3, #255	; 0xff
    8094:	ea000003 	b	80a8 <convert_gpio_to_pin+0x44>
    8098:	e15b20d5 	ldrsb	r2, [fp, #-5]
    809c:	e30831c4 	movw	r3, #33220	; 0x81c4
    80a0:	e3403000 	movt	r3, #0
    80a4:	e7d33002 	ldrb	r3, [r3, r2]
    80a8:	e6af3073 	sxtb	r3, r3
    80ac:	e1a00003 	mov	r0, r3
    80b0:	e28bd000 	add	sp, fp, #0
    80b4:	e8bd0800 	ldmfd	sp!, {fp}
    80b8:	e12fff1e 	bx	lr

000080bc <mmio_write>:
    80bc:	e52db004 	push	{fp}		; (str fp, [sp, #-4]!)
    80c0:	e28db000 	add	fp, sp, #0
    80c4:	e24dd00c 	sub	sp, sp, #12
    80c8:	e50b0008 	str	r0, [fp, #-8]
    80cc:	e50b100c 	str	r1, [fp, #-12]
    80d0:	e51b3008 	ldr	r3, [fp, #-8]
    80d4:	e51b200c 	ldr	r2, [fp, #-12]
    80d8:	e5832000 	str	r2, [r3]
    80dc:	e28bd000 	add	sp, fp, #0
    80e0:	e8bd0800 	ldmfd	sp!, {fp}
    80e4:	e12fff1e 	bx	lr

000080e8 <delay>:
    80e8:	e52db004 	push	{fp}		; (str fp, [sp, #-4]!)
    80ec:	e28db000 	add	fp, sp, #0
    80f0:	e24dd014 	sub	sp, sp, #20
    80f4:	e50b0010 	str	r0, [fp, #-16]
    80f8:	e3a03000 	mov	r3, #0
    80fc:	e50b3008 	str	r3, [fp, #-8]
    8100:	ea000002 	b	8110 <delay+0x28>
    8104:	e51b3008 	ldr	r3, [fp, #-8]
    8108:	e2833001 	add	r3, r3, #1
    810c:	e50b3008 	str	r3, [fp, #-8]
    8110:	e51b2008 	ldr	r2, [fp, #-8]
    8114:	e51b3010 	ldr	r3, [fp, #-16]
    8118:	e1520003 	cmp	r2, r3
    811c:	9afffff8 	bls	8104 <delay+0x1c>
    8120:	e28bd000 	add	sp, fp, #0
    8124:	e8bd0800 	ldmfd	sp!, {fp}
    8128:	e12fff1e 	bx	lr

0000812c <main>:
    812c:	e92d4800 	push	{fp, lr}
    8130:	e28db004 	add	fp, sp, #4
    8134:	e30831e0 	movw	r3, #33248	; 0x81e0
    8138:	e3403000 	movt	r3, #0
    813c:	e5933000 	ldr	r3, [r3]
    8140:	e2833008 	add	r3, r3, #8
    8144:	e3a02a01 	mov	r2, #4096	; 0x1000
    8148:	e5832000 	str	r2, [r3]
    814c:	e30831e0 	movw	r3, #33248	; 0x81e0
    8150:	e3403000 	movt	r3, #0
    8154:	e5933000 	ldr	r3, [r3]
    8158:	e2833028 	add	r3, r3, #40	; 0x28
    815c:	e3a02401 	mov	r2, #16777216	; 0x1000000
    8160:	e5832000 	str	r2, [r3]
    8164:	e30c0ba8 	movw	r0, #52136	; 0xcba8
    8168:	e3400018 	movt	r0, #24
    816c:	ebffffdd 	bl	80e8 <delay>
    8170:	e30831e0 	movw	r3, #33248	; 0x81e0
    8174:	e3403000 	movt	r3, #0
    8178:	e5933000 	ldr	r3, [r3]
    817c:	e283301c 	add	r3, r3, #28
    8180:	e3a02401 	mov	r2, #16777216	; 0x1000000
    8184:	e5832000 	str	r2, [r3]
    8188:	e30c0ba8 	movw	r0, #52136	; 0xcba8
    818c:	e3400018 	movt	r0, #24
    8190:	ebffffd4 	bl	80e8 <delay>
    8194:	eaffffec 	b	814c <main+0x20>
